; Function Attrs: nofree norecurse nosync nounwind memory(argmem: readwrite) uwtable
define internal void @h264_h_loop_filter_chroma_mbaff_12_c(ptr noundef captures(none) %0, i64 noundef %1, i32 noundef %2, i32 noundef %3, ptr noundef readonly captures(none) %4) #1 {
  %6 = shl i32 %2, 4
  %7 = shl i32 %3, 4
  %8 = ashr i64 %1, 1
  br label %9

9:                                                ; preds = %5, %.loopexit
  %indvars.iv = phi i64 [ 0, %5 ], [ %indvars.iv.next, %.loopexit ]
  %.0.i6 = phi ptr [ %0, %5 ], [ %.1.i, %.loopexit ]
  %10 = getelementptr inbounds nuw i8, ptr %4, i64 %indvars.iv
  %11 = load i8, ptr %10, align 1, !tbaa !42
  %12 = sext i8 %11 to i32
  %13 = shl nsw i32 %12, 4
  %14 = add nsw i32 %13, -15
  %15 = icmp slt i8 %11, 1
  br i1 %15, label %.loopexit, label %.preheader

.preheader:                                       ; preds = %9
  %16 = sub nsw i32 15, %13
  %17 = getelementptr inbounds i8, ptr %.0.i6, i64 -2
  %18 = load i16, ptr %17, align 2, !tbaa !37
  %19 = zext i16 %18 to i32
  %20 = getelementptr inbounds i8, ptr %.0.i6, i64 -4
  %21 = load i16, ptr %20, align 2, !tbaa !37
  %22 = zext i16 %21 to i32
  %23 = load i16, ptr %.0.i6, align 2, !tbaa !37
  %24 = zext i16 %23 to i32
  %25 = getelementptr inbounds nuw i8, ptr %.0.i6, i64 2
  %26 = load i16, ptr %25, align 2, !tbaa !37
  %27 = zext i16 %26 to i32
  %28 = sub nsw i32 %19, %24
  %29 = tail call i32 @llvm.abs.i32(i32 %28, i1 true)
  %30 = icmp slt i32 %29, %6
  br i1 %30, label %31, label %.loopexit

31:                                               ; preds = %.preheader
  %32 = sub nsw i32 %22, %19
  %33 = tail call i32 @llvm.abs.i32(i32 %32, i1 true)
  %34 = icmp slt i32 %33, %7
  br i1 %34, label %35, label %.loopexit

35:                                               ; preds = %31
  %36 = sub nsw i32 %27, %24
  %37 = tail call i32 @llvm.abs.i32(i32 %36, i1 true)
  %38 = icmp samesign ult i32 %37, %7
  br i1 %38, label %39, label %.loopexit

39:                                               ; preds = %35
  %40 = sub nsw i32 %24, %19
  %41 = shl nsw i32 %40, 2
  %42 = add nuw nsw i32 %22, 4
  %43 = sub nsw i32 %42, %27
  %44 = add nsw i32 %43, %41
  %45 = ashr i32 %44, 3
  %46 = icmp slt i32 %45, %16
  %..i.i = tail call i32 @llvm.smin.i32(i32 %45, i32 %14)
  %.0.i71.i = select i1 %46, i32 %16, i32 %..i.i
  %47 = add nsw i32 %.0.i71.i, %19
  %48 = tail call i32 @llvm.smax.i32(i32 %47, i32 0)
  %49 = tail call i32 @llvm.umin.i32(i32 %48, i32 4095)
  %50 = trunc nuw nsw i32 %49 to i16
  store i16 %50, ptr %17, align 2, !tbaa !37
  %51 = sub nsw i32 %24, %.0.i71.i
  %52 = tail call i32 @llvm.smax.i32(i32 %51, i32 0)
  %53 = tail call i32 @llvm.umin.i32(i32 %52, i32 4095)
  %54 = trunc nuw nsw i32 %53 to i16
  store i16 %54, ptr %.0.i6, align 2, !tbaa !37
  br label %.loopexit

.loopexit:                                        ; preds = %.preheader, %31, %35, %39, %9
  %.1.i = getelementptr inbounds i16, ptr %.0.i6, i64 %8
  %indvars.iv.next = add nuw nsw i64 %indvars.iv, 1
  %exitcond.not = icmp eq i64 %indvars.iv.next, 4
  br i1 %exitcond.not, label %h264_loop_filter_chroma_12_c.exit, label %9, !llvm.loop !85

h264_loop_filter_chroma_12_c.exit:                ; preds = %.loopexit
  ret void
}